target datalayout = "e-m:e-p270:32:32-p271:32:32-p272:64:64-i64:64-i128:128-f80:128-n8:16:32:64-S128"
target triple = "x86_64-pc-linux-gnu"

%"class.std::vector" = type { %"struct.std::_Vector_base" }
%"struct.std::_Vector_base" = type { %"struct.std::_Vector_base<gmx::BasicVector<float>, std::allocator<gmx::BasicVector<float>>>::_Vector_impl" }
%"struct.std::_Vector_base<gmx::BasicVector<float>, std::allocator<gmx::BasicVector<float>>>::_Vector_impl" = type { %"struct.std::_Vector_base<gmx::BasicVector<float>, std::allocator<gmx::BasicVector<float>>>::_Vector_impl_data" }
%"struct.std::_Vector_base<gmx::BasicVector<float>, std::allocator<gmx::BasicVector<float>>>::_Vector_impl_data" = type { ptr, ptr, ptr }
%struct.t_inputrec = type { i32, i32, i64, i32, i64, i32, i32, i32, i32, i32, i32, i32, i32, i32, i32, i32, double, double, i8, %"class.std::vector.131", float, float, float, i32, i32, i32, i32, float, float, i32, float, i32, i32, i8, i8, i32, float, i32, i32, i8, %struct.PressureCouplingOptions, %"class.std::vector", %"class.std::vector", i32, float, float, float, float, i32, i32, float, float, float, float, i8, i32, i32, float, float, i32, float, float, i32, %"class.std::unique_ptr.136", i8, %"class.std::unique_ptr.144", i8, %"class.std::unique_ptr.152", i32, float, i32, i8, i32, float, float, float, i32, float, float, i32, float, i32, i32, i32, i32, float, i32, i8, float, i64, i32, i32, float, [2 x i32], [2 x float], float, i8, %"class.std::unique_ptr.160", i8, %"class.std::unique_ptr.168", i8, %"class.std::unique_ptr.176", i32, ptr, i8, ptr, float, [3 x [3 x float]], i32, i32, i32, i32, float, float, float, float, %struct.t_grpopts, i8, i8, i8, i8, ptr, %"class.std::unique_ptr.184" }
%"class.std::vector.131" = type { %"struct.std::_Vector_base.132" }
%"struct.std::_Vector_base.132" = type { %"struct.std::_Vector_base<gmx::MtsLevel, std::allocator<gmx::MtsLevel>>::_Vector_impl" }
%"struct.std::_Vector_base<gmx::MtsLevel, std::allocator<gmx::MtsLevel>>::_Vector_impl" = type { %"struct.std::_Vector_base<gmx::MtsLevel, std::allocator<gmx::MtsLevel>>::_Vector_impl_data" }
%"struct.std::_Vector_base<gmx::MtsLevel, std::allocator<gmx::MtsLevel>>::_Vector_impl_data" = type { ptr, ptr, ptr }
%struct.PressureCouplingOptions = type { i32, i32, i32, float, [3 x [3 x float]], [3 x [3 x float]], i32 }
%"class.std::unique_ptr.136" = type { %"struct.std::__uniq_ptr_data.137" }
%"struct.std::__uniq_ptr_data.137" = type { %"class.std::__uniq_ptr_impl.138" }
%"class.std::__uniq_ptr_impl.138" = type { %"class.std::tuple.139" }
%"class.std::tuple.139" = type { %"struct.std::_Tuple_impl.140" }
%"struct.std::_Tuple_impl.140" = type { %"struct.std::_Head_base.143" }
%"struct.std::_Head_base.143" = type { ptr }
%"class.std::unique_ptr.144" = type { %"struct.std::__uniq_ptr_data.145" }
%"struct.std::__uniq_ptr_data.145" = type { %"class.std::__uniq_ptr_impl.146" }
%"class.std::__uniq_ptr_impl.146" = type { %"class.std::tuple.147" }
%"class.std::tuple.147" = type { %"struct.std::_Tuple_impl.148" }
%"struct.std::_Tuple_impl.148" = type { %"struct.std::_Head_base.151" }
%"struct.std::_Head_base.151" = type { ptr }
%"class.std::unique_ptr.152" = type { %"struct.std::__uniq_ptr_data.153" }
%"struct.std::__uniq_ptr_data.153" = type { %"class.std::__uniq_ptr_impl.154" }
%"class.std::__uniq_ptr_impl.154" = type { %"class.std::tuple.155" }
%"class.std::tuple.155" = type { %"struct.std::_Tuple_impl.156" }
%"struct.std::_Tuple_impl.156" = type { %"struct.std::_Head_base.159" }
%"struct.std::_Head_base.159" = type { ptr }
%"class.std::unique_ptr.160" = type { %"struct.std::__uniq_ptr_data.161" }
%"struct.std::__uniq_ptr_data.161" = type { %"class.std::__uniq_ptr_impl.162" }
%"class.std::__uniq_ptr_impl.162" = type { %"class.std::tuple.163" }
%"class.std::tuple.163" = type { %"struct.std::_Tuple_impl.164" }
%"struct.std::_Tuple_impl.164" = type { %"struct.std::_Head_base.167" }
%"struct.std::_Head_base.167" = type { ptr }
%"class.std::unique_ptr.168" = type { %"struct.std::__uniq_ptr_data.169" }
%"struct.std::__uniq_ptr_data.169" = type { %"class.std::__uniq_ptr_impl.170" }
%"class.std::__uniq_ptr_impl.170" = type { %"class.std::tuple.171" }
%"class.std::tuple.171" = type { %"struct.std::_Tuple_impl.172" }
%"struct.std::_Tuple_impl.172" = type { %"struct.std::_Head_base.175" }
%"struct.std::_Head_base.175" = type { ptr }
%"class.std::unique_ptr.176" = type { %"struct.std::__uniq_ptr_data.177" }
%"struct.std::__uniq_ptr_data.177" = type { %"class.std::__uniq_ptr_impl.178" }
%"class.std::__uniq_ptr_impl.178" = type { %"class.std::tuple.179" }
%"class.std::tuple.179" = type { %"struct.std::_Tuple_impl.180" }
%"struct.std::_Tuple_impl.180" = type { %"struct.std::_Head_base.183" }
%"struct.std::_Head_base.183" = type { ptr }
%struct.t_grpopts = type <{ i32, i32, i32, i32, i32, [4 x i8], ptr, ptr, ptr, ptr, ptr, ptr, ptr, ptr, ptr, ptr, i32, [4 x i8] }>
%"class.std::unique_ptr.184" = type { %"struct.std::__uniq_ptr_data.185" }
%"struct.std::__uniq_ptr_data.185" = type { %"class.std::__uniq_ptr_impl.186" }
%"class.std::__uniq_ptr_impl.186" = type { %"class.std::tuple.187" }
%"class.std::tuple.187" = type { %"struct.std::_Tuple_impl.188" }
%"struct.std::_Tuple_impl.188" = type { %"struct.std::_Head_base.191" }
%"struct.std::_Head_base.191" = type { ptr }
%"class.gmx::PmeLoadBalanceHelper" = type { %"class.gmx::INeighborSearchSignallerClient", ptr, i64, i8, i8, ptr, ptr, ptr, ptr, ptr, ptr, ptr }
%"class.gmx::INeighborSearchSignallerClient" = type { ptr }
%"class.gmx::ArrayRef" = type { %"struct.gmx::ArrayRefIter", %"struct.gmx::ArrayRefIter" }
%"struct.gmx::ArrayRefIter" = type { ptr }
%"class.gmx::ArrayRefWithPadding.266" = type { ptr, ptr, ptr }
%struct.t_commrec = type <{ i8, [3 x i8], i32, i32, i32, i32, [4 x i8], ptr, ptr, i32, [4 x i8], ptr, i32, i32, %struct.gmx_nodecomm_t, %"class.std::unique_ptr.250", %"class.std::unique_ptr.258", ptr, ptr, i32, [4 x i8] }>
%struct.gmx_nodecomm_t = type { i8, ptr, i32, ptr }
%"class.std::unique_ptr.250" = type { %"struct.std::__uniq_ptr_data.251" }
%"struct.std::__uniq_ptr_data.251" = type { %"class.std::__uniq_ptr_impl.252" }
%"class.std::__uniq_ptr_impl.252" = type { %"class.std::tuple.253" }
%"class.std::tuple.253" = type { %"struct.std::_Tuple_impl.254" }
%"struct.std::_Tuple_impl.254" = type { %"struct.std::_Head_base.257" }
%"struct.std::_Head_base.257" = type { ptr }
%"class.std::unique_ptr.258" = type { %"struct.std::__uniq_ptr_data.259" }
%"struct.std::__uniq_ptr_data.259" = type { %"class.std::__uniq_ptr_impl.260" }
%"class.std::__uniq_ptr_impl.260" = type { %"class.std::tuple.261" }
%"class.std::tuple.261" = type { %"struct.std::_Tuple_impl.262" }
%"struct.std::_Tuple_impl.262" = type { %"struct.std::_Head_base.265" }
%"struct.std::_Head_base.265" = type { ptr }

@stderr = external global ptr, align 8

; Function Attrs: mustprogress nounwind uwtable
define linkonce_odr void @_ZN3gmx12ArrayRefIterIKNS_11BasicVectorIfEEEC2EPS3_(ptr noundef nonnull align 8 dereferenceable(8) %0, ptr noundef %1) unnamed_addr #0 comdat align 2 {
  %3 = alloca ptr, align 8
  %4 = alloca ptr, align 8
  store ptr %0, ptr %3, align 8, !tbaa !354
  store ptr %1, ptr %4, align 8, !tbaa !353
  %5 = load ptr, ptr %3, align 8
  %6 = getelementptr inbounds nuw %"struct.gmx::ArrayRefIter", ptr %5, i32 0, i32 0
  %7 = load ptr, ptr %4, align 8, !tbaa !353
  store ptr %7, ptr %6, align 8, !tbaa !356
  ret void
}

; Function Attrs: mustprogress nounwind uwtable
define linkonce_odr void @_ZN3gmx8ArrayRefIKNS_11BasicVectorIfEEEC2EPS3_S5_(ptr noundef nonnull align 8 dereferenceable(16) %0, ptr noundef %1, ptr noundef %2) unnamed_addr #0 comdat align 2 {
  %4 = alloca ptr, align 8
  %5 = alloca ptr, align 8
  %6 = alloca ptr, align 8
  store ptr %0, ptr %4, align 8, !tbaa !351
  store ptr %1, ptr %5, align 8, !tbaa !353
  store ptr %2, ptr %6, align 8, !tbaa !353
  %7 = load ptr, ptr %4, align 8
  %8 = getelementptr inbounds nuw %"class.gmx::ArrayRef", ptr %7, i32 0, i32 0
  %9 = load ptr, ptr %5, align 8, !tbaa !353
  call void @_ZN3gmx12ArrayRefIterIKNS_11BasicVectorIfEEEC2EPS3_(ptr noundef nonnull align 8 dereferenceable(8) %8, ptr noundef %9) #12
  %10 = getelementptr inbounds nuw %"class.gmx::ArrayRef", ptr %7, i32 0, i32 1
  %11 = load ptr, ptr %6, align 8, !tbaa !353
  call void @_ZN3gmx12ArrayRefIterIKNS_11BasicVectorIfEEEC2EPS3_(ptr noundef nonnull align 8 dereferenceable(8) %10, ptr noundef %11) #12
  ret void
}

; Function Attrs: mustprogress uwtable
define linkonce_odr { ptr, ptr } @_ZN3gmx19ArrayRefWithPaddingIKNS_11BasicVectorIfEEE14paddedArrayRefEv(ptr noundef nonnull align 8 dereferenceable(24) %0) #2 comdat align 2 {
  %2 = alloca %"class.gmx::ArrayRef", align 8
  %3 = alloca ptr, align 8
  store ptr %0, ptr %3, align 8, !tbaa !346
  %4 = load ptr, ptr %3, align 8
  %5 = getelementptr inbounds nuw %"class.gmx::ArrayRefWithPadding.266", ptr %4, i32 0, i32 0
  %6 = load ptr, ptr %5, align 8, !tbaa !348
  %7 = getelementptr inbounds nuw %"class.gmx::ArrayRefWithPadding.266", ptr %4, i32 0, i32 2
  %8 = load ptr, ptr %7, align 8, !tbaa !350
  call void @_ZN3gmx8ArrayRefIKNS_11BasicVectorIfEEEC2EPS3_S5_(ptr noundef nonnull align 8 dereferenceable(16) %2, ptr noundef %6, ptr noundef %8)
  %9 = load { ptr, ptr }, ptr %2, align 8
  ret { ptr, ptr } %9
}

; Function Attrs: mustprogress uwtable
define void @_ZN3gmx20PmeLoadBalanceHelper3runEld(ptr noundef nonnull align 8 dereferenceable(88) %0, i64 noundef %1, double noundef %2) #2 align 2 {
  %4 = alloca ptr, align 8
  %5 = alloca i64, align 8
  %6 = alloca double, align 8
  %7 = alloca %"class.gmx::ArrayRef", align 8
  %8 = alloca %"class.gmx::ArrayRefWithPadding.266", align 8
  store ptr %0, ptr %4, align 8, !tbaa !9
  store i64 %1, ptr %5, align 8, !tbaa !324
  store double %2, ptr %6, align 8, !tbaa !325
  %9 = load ptr, ptr %4, align 8
  %10 = load i64, ptr %5, align 8, !tbaa !324
  %11 = getelementptr inbounds nuw %"class.gmx::PmeLoadBalanceHelper", ptr %9, i32 0, i32 2
  %12 = load i64, ptr %11, align 8, !tbaa !158
  %13 = icmp ne i64 %10, %12
  br i1 %13, label %21, label %14

14:                                               ; preds = %3
  %15 = load i64, ptr %5, align 8, !tbaa !324
  %16 = getelementptr inbounds nuw %"class.gmx::PmeLoadBalanceHelper", ptr %9, i32 0, i32 9
  %17 = load ptr, ptr %16, align 8, !tbaa !164
  %18 = getelementptr inbounds nuw %struct.t_inputrec, ptr %17, i32 0, i32 4
  %19 = load i64, ptr %18, align 8, !tbaa !326
  %20 = icmp eq i64 %15, %19
  br i1 %20, label %21, label %22

21:                                               ; preds = %14, %3
  br label %75

22:                                               ; preds = %14
  %23 = getelementptr inbounds nuw %"class.gmx::PmeLoadBalanceHelper", ptr %9, i32 0, i32 1
  %24 = load ptr, ptr %23, align 8, !tbaa !154
  %25 = getelementptr inbounds nuw %"class.gmx::PmeLoadBalanceHelper", ptr %9, i32 0, i32 7
  %26 = load ptr, ptr %25, align 8, !tbaa !163
  %27 = getelementptr inbounds nuw %"class.gmx::PmeLoadBalanceHelper", ptr %9, i32 0, i32 3
  %28 = load i8, ptr %27, align 8, !tbaa !159, !range !31, !noundef !32
  %29 = trunc i8 %28 to i1
  br i1 %29, label %30, label %44

30:                                               ; preds = %22
  %31 = getelementptr inbounds nuw %"class.gmx::PmeLoadBalanceHelper", ptr %9, i32 0, i32 7
  %32 = load ptr, ptr %31, align 8, !tbaa !163
  %33 = getelementptr inbounds nuw %struct.t_commrec, ptr %32, i32 0, i32 13
  %34 = load i32, ptr %33, align 4, !tbaa !327
  %35 = icmp eq i32 %34, 0
  br i1 %35, label %42, label %36

36:                                               ; preds = %30
  %37 = getelementptr inbounds nuw %"class.gmx::PmeLoadBalanceHelper", ptr %9, i32 0, i32 7
  %38 = load ptr, ptr %37, align 8, !tbaa !163
  %39 = getelementptr inbounds nuw %struct.t_commrec, ptr %38, i32 0, i32 12
  %40 = load i32, ptr %39, align 8, !tbaa !345
  %41 = icmp sgt i32 %40, 1
  br i1 %41, label %44, label %42

42:                                               ; preds = %36, %30
  %43 = load ptr, ptr @stderr, align 8, !tbaa !144
  br label %45

44:                                               ; preds = %36, %22
  br label %45

45:                                               ; preds = %44, %42
  %46 = phi ptr [ %43, %42 ], [ null, %44 ]
  %47 = getelementptr inbounds nuw %"class.gmx::PmeLoadBalanceHelper", ptr %9, i32 0, i32 6
  %48 = load ptr, ptr %47, align 8, !tbaa !162
  %49 = getelementptr inbounds nuw %"class.gmx::PmeLoadBalanceHelper", ptr %9, i32 0, i32 8
  %50 = load ptr, ptr %49, align 8, !tbaa !169
  %51 = getelementptr inbounds nuw %"class.gmx::PmeLoadBalanceHelper", ptr %9, i32 0, i32 9
  %52 = load ptr, ptr %51, align 8, !tbaa !164
  %53 = getelementptr inbounds nuw %"class.gmx::PmeLoadBalanceHelper", ptr %9, i32 0, i32 11
  %54 = load ptr, ptr %53, align 8, !tbaa !166
  %55 = getelementptr inbounds nuw %"class.gmx::PmeLoadBalanceHelper", ptr %9, i32 0, i32 5
  %56 = load ptr, ptr %55, align 8, !tbaa !161
  %57 = call noundef ptr @_ZNK3gmx19StatePropagatorData8constBoxEv(ptr noundef nonnull align 8 dereferenceable(632) %56)
  call void @llvm.lifetime.start.p0(i64 24, ptr %8) #12
  %58 = getelementptr inbounds nuw %"class.gmx::PmeLoadBalanceHelper", ptr %9, i32 0, i32 5
  %59 = load ptr, ptr %58, align 8, !tbaa !161
  call void @_ZNK3gmx19StatePropagatorData18constPositionsViewEv(ptr dead_on_unwind writable sret(%"class.gmx::ArrayRefWithPadding.266") align 8 %8, ptr noundef nonnull align 8 dereferenceable(632) %59)
  %60 = call { ptr, ptr } @_ZN3gmx19ArrayRefWithPaddingIKNS_11BasicVectorIfEEE14paddedArrayRefEv(ptr noundef nonnull align 8 dereferenceable(24) %8)
  %61 = getelementptr inbounds nuw { ptr, ptr }, ptr %7, i32 0, i32 0
  %62 = extractvalue { ptr, ptr } %60, 0
  store ptr %62, ptr %61, align 8
  %63 = getelementptr inbounds nuw { ptr, ptr }, ptr %7, i32 0, i32 1
  %64 = extractvalue { ptr, ptr } %60, 1
  store ptr %64, ptr %63, align 8
  %65 = getelementptr inbounds nuw %"class.gmx::PmeLoadBalanceHelper", ptr %9, i32 0, i32 10
  %66 = load ptr, ptr %65, align 8, !tbaa !165
  %67 = load i64, ptr %5, align 8, !tbaa !324
  %68 = load i64, ptr %5, align 8, !tbaa !324
  %69 = getelementptr inbounds nuw %"class.gmx::PmeLoadBalanceHelper", ptr %9, i32 0, i32 9
  %70 = load ptr, ptr %69, align 8, !tbaa !164
  %71 = getelementptr inbounds nuw %struct.t_inputrec, ptr %70, i32 0, i32 4
  %72 = load i64, ptr %71, align 8, !tbaa !326
  %73 = sub nsw i64 %68, %72
  %74 = getelementptr inbounds nuw %"class.gmx::PmeLoadBalanceHelper", ptr %9, i32 0, i32 4
  call void @_Z14pme_loadbal_doP20pme_load_balancing_tP9t_commrecP8_IO_FILES4_RKN3gmx8MDLoggerERK10t_inputrecP10t_forcerecPA3_KfNS5_8ArrayRefIKNS5_11BasicVectorIfEEEEP13gmx_wallcyclellPbb(ptr noundef %24, ptr noundef %26, ptr noundef %46, ptr noundef %48, ptr noundef nonnull align 8 dereferenceable(40) %50, ptr noundef nonnull align 8 dereferenceable(880) %52, ptr noundef %54, ptr noundef %57, ptr noundef byval(%"class.gmx::ArrayRef") align 8 %7, ptr noundef %66, i64 noundef %67, i64 noundef %73, ptr noundef %74, i1 noundef zeroext false)
  call void @llvm.lifetime.end.p0(i64 24, ptr %8) #12
  br label %75

75:                                               ; preds = %45, %21
  ret void
}