; Function Attrs: mustprogress uwtable
define void @_ZN3gmx20PmeLoadBalanceHelper3runEld(ptr noundef nonnull align 8 dereferenceable(88) %0, i64 noundef %1, double noundef %2) local_unnamed_addr #4 align 2 {
  %4 = alloca %"class.gmx::ArrayRef", align 8
  %5 = alloca %"class.gmx::ArrayRefWithPadding.266", align 8
  %6 = getelementptr inbounds nuw i8, ptr %0, i64 16
  %7 = load i64, ptr %6, align 8, !tbaa !137
  %.not = icmp eq i64 %1, %7
  br i1 %.not, label %8, label %55

8:                                                ; preds = %3
  %9 = getelementptr inbounds nuw i8, ptr %0, i64 64
  %10 = load ptr, ptr %9, align 8, !tbaa !144
  %11 = getelementptr inbounds nuw i8, ptr %10, i64 24
  %12 = load i64, ptr %11, align 8, !tbaa !292
  %13 = icmp eq i64 %1, %12
  br i1 %13, label %55, label %14

14:                                               ; preds = %8
  %15 = getelementptr inbounds nuw i8, ptr %0, i64 8
  %16 = load ptr, ptr %15, align 8, !tbaa !126
  %17 = getelementptr inbounds nuw i8, ptr %0, i64 48
  %18 = load ptr, ptr %17, align 8, !tbaa !142
  %19 = getelementptr inbounds nuw i8, ptr %0, i64 24
  %20 = load i8, ptr %19, align 8, !tbaa !138, !range !25, !noundef !26
  %21 = trunc nuw i8 %20 to i1
  br i1 %21, label %22, label %32

22:                                               ; preds = %14
  %23 = getelementptr inbounds nuw i8, ptr %18, i64 60
  %24 = load i32, ptr %23, align 4, !tbaa !293
  %25 = icmp eq i32 %24, 0
  br i1 %25, label %30, label %26

26:                                               ; preds = %22
  %27 = getelementptr inbounds nuw i8, ptr %18, i64 56
  %28 = load i32, ptr %27, align 8, !tbaa !311
  %29 = icmp sgt i32 %28, 1
  br i1 %29, label %32, label %30

30:                                               ; preds = %26, %22
  %31 = load ptr, ptr @stderr, align 8, !tbaa !312
  br label %32

32:                                               ; preds = %14, %26, %30
  %33 = phi ptr [ %31, %30 ], [ null, %26 ], [ null, %14 ]
  %34 = getelementptr inbounds nuw i8, ptr %0, i64 40
  %35 = load ptr, ptr %34, align 8, !tbaa !141
  %36 = getelementptr inbounds nuw i8, ptr %0, i64 56
  %37 = load ptr, ptr %36, align 8, !tbaa !148
  %38 = getelementptr inbounds nuw i8, ptr %0, i64 80
  %39 = load ptr, ptr %38, align 8, !tbaa !146
  %40 = getelementptr inbounds nuw i8, ptr %0, i64 32
  %41 = load ptr, ptr %40, align 8, !tbaa !140
  %42 = tail call noundef ptr @_ZNK3gmx19StatePropagatorData8constBoxEv(ptr noundef nonnull align 8 dereferenceable(632) %41)
  call void @llvm.lifetime.start.p0(i64 24, ptr nonnull %5) #14
  %43 = load ptr, ptr %40, align 8, !tbaa !140
  call void @_ZNK3gmx19StatePropagatorData18constPositionsViewEv(ptr dead_on_unwind nonnull writable sret(%"class.gmx::ArrayRefWithPadding.266") align 8 %5, ptr noundef nonnull align 8 dereferenceable(632) %43)
  %44 = load ptr, ptr %5, align 8, !tbaa !313
  %45 = getelementptr inbounds nuw i8, ptr %5, i64 16
  %46 = load ptr, ptr %45, align 8, !tbaa !315
  store ptr %44, ptr %4, align 8
  %47 = getelementptr inbounds nuw i8, ptr %4, i64 8
  store ptr %46, ptr %47, align 8
  %48 = getelementptr inbounds nuw i8, ptr %0, i64 72
  %49 = load ptr, ptr %48, align 8, !tbaa !145
  %50 = load ptr, ptr %9, align 8, !tbaa !144
  %51 = getelementptr inbounds nuw i8, ptr %50, i64 24
  %52 = load i64, ptr %51, align 8, !tbaa !292
  %53 = sub nsw i64 %1, %52
  %54 = getelementptr inbounds nuw i8, ptr %0, i64 25
  call void @_Z14pme_loadbal_doP20pme_load_balancing_tP9t_commrecP8_IO_FILES4_RKN3gmx8MDLoggerERK10t_inputrecP10t_forcerecPA3_KfNS5_8ArrayRefIKNS5_11BasicVectorIfEEEEP13gmx_wallcyclellPbb(ptr noundef %16, ptr noundef %18, ptr noundef %33, ptr noundef %35, ptr noundef nonnull align 8 dereferenceable(40) %37, ptr noundef nonnull align 8 dereferenceable(880) %10, ptr noundef %39, ptr noundef %42, ptr noundef nonnull byval(%"class.gmx::ArrayRef") align 8 %4, ptr noundef %49, i64 noundef %1, i64 noundef %53, ptr noundef nonnull %54, i1 noundef zeroext false)
  call void @llvm.lifetime.end.p0(i64 24, ptr nonnull %5) #14
  br label %55

55:                                               ; preds = %3, %8, %32
  ret void
}